; Function Attrs: nounwind uwtable
define range(i32 -48, 1) i32 @ARKodeSetMassFn(ptr noundef %0, ptr noundef %1) local_unnamed_addr #0 {
  %3 = icmp eq ptr %0, null
  br i1 %3, label %4, label %5

4:                                                ; preds = %2
  tail call void (ptr, i32, i32, ptr, ptr, ptr, ...) @arkProcessError(ptr noundef null, i32 noundef -21, i32 noundef 611, ptr noundef nonnull @__func__.ARKodeSetMassFn, ptr noundef nonnull @.str, ptr noundef nonnull @.str.1) #13
  br label %27

5:                                                ; preds = %2
  %6 = getelementptr inbounds nuw i8, ptr %0, i64 512
  %7 = load i32, ptr %6, align 8, !tbaa !105
  %.not = icmp eq i32 %7, 0
  br i1 %.not, label %8, label %9

8:                                                ; preds = %5
  tail call void (ptr, i32, i32, ptr, ptr, ptr, ...) @arkProcessError(ptr noundef nonnull %0, i32 noundef -48, i32 noundef 620, ptr noundef nonnull @__func__.ARKodeSetMassFn, ptr noundef nonnull @.str, ptr noundef nonnull @.str.16) #13
  br label %27

9:                                                ; preds = %5
  %10 = getelementptr inbounds nuw i8, ptr %0, i64 536
  %11 = load ptr, ptr %10, align 8, !tbaa !75
  %12 = tail call ptr %11(ptr noundef nonnull %0) #13
  %13 = icmp eq ptr %12, null
  br i1 %13, label %arkLs_AccessMassMem.exit, label %14

arkLs_AccessMassMem.exit:                         ; preds = %9
  tail call void (ptr, i32, i32, ptr, ptr, ptr, ...) @arkProcessError(ptr noundef nonnull %0, i32 noundef -6, i32 noundef 4109, ptr noundef nonnull @__func__.ARKodeSetMassFn, ptr noundef nonnull @.str, ptr noundef nonnull @.str.65) #13
  br label %27

14:                                               ; preds = %9
  %15 = icmp eq ptr %1, null
  br i1 %15, label %16, label %17

16:                                               ; preds = %14
  tail call void (ptr, i32, i32, ptr, ptr, ptr, ...) @arkProcessError(ptr noundef nonnull %0, i32 noundef -3, i32 noundef 632, ptr noundef nonnull @__func__.ARKodeSetMassFn, ptr noundef nonnull @.str, ptr noundef nonnull @.str.18) #13
  br label %27

17:                                               ; preds = %14
  %18 = getelementptr inbounds nuw i8, ptr %12, i64 16
  %19 = load ptr, ptr %18, align 8, !tbaa !86
  %20 = icmp eq ptr %19, null
  br i1 %20, label %21, label %22

21:                                               ; preds = %17
  tail call void (ptr, i32, i32, ptr, ptr, ptr, ...) @arkProcessError(ptr noundef nonnull %0, i32 noundef -3, i32 noundef 638, ptr noundef nonnull @__func__.ARKodeSetMassFn, ptr noundef nonnull @.str, ptr noundef nonnull @.str.19) #13
  br label %27

22:                                               ; preds = %17
  %23 = getelementptr inbounds nuw i8, ptr %12, i64 8
  store ptr %1, ptr %23, align 8, !tbaa !116
  %24 = getelementptr inbounds nuw i8, ptr %0, i64 16
  %25 = load ptr, ptr %24, align 8, !tbaa !53
  %26 = getelementptr inbounds nuw i8, ptr %12, i64 32
  store ptr %25, ptr %26, align 8, !tbaa !127
  br label %27

27:                                               ; preds = %arkLs_AccessMassMem.exit, %22, %21, %16, %8, %4
  %.0 = phi i32 [ -21, %4 ], [ -3, %16 ], [ -3, %21 ], [ 0, %22 ], [ -48, %8 ], [ -6, %arkLs_AccessMassMem.exit ]
  ret i32 %.0
}